target datalayout = "e-m:e-p270:32:32-p271:32:32-p272:64:64-i64:64-i128:128-f80:128-n8:16:32:64-S128"
target triple = "x86_64-pc-linux-gnu"

%class.CompileTask = type { ptr, i32, ptr, ptr, i32, i8, i8, i8, i32, i32, i32, ptr, i8, ptr, i32, i32, ptr, ptr, i8, i64, i64, ptr, ptr, i32, i32, ptr, i8, i64 }
%class.CompileQueue = type { ptr, ptr, ptr, ptr, i32, i32, i32, i32 }

@_ZN13CompileBroker17_c2_compile_queueE = hidden global ptr null, align 8
@_ZN13CompileBroker17_c1_compile_queueE = hidden global ptr null, align 8
@.str.13 = private unnamed_addr constant [19 x i8] c"Current compiles: \00", align 1
@.str.14 = private unnamed_addr constant [4 x i8] c"%s:\00", align 1
@.str.15 = private unnamed_addr constant [6 x i8] c"Empty\00", align 1

; Function Attrs: mustprogress nounwind uwtable
define linkonce_odr hidden noundef ptr @_ZNK11CompileTask4nextEv(ptr noundef nonnull align 8 dereferenceable(176) %0) #1 comdat align 2 {
  %2 = alloca ptr, align 8
  store ptr %0, ptr %2, align 8
  %3 = load ptr, ptr %2, align 8
  %4 = getelementptr inbounds %class.CompileTask, ptr %3, i32 0, i32 16
  %5 = load ptr, ptr %4, align 8
  ret ptr %5
}

; Function Attrs: mustprogress nounwind uwtable
define linkonce_odr hidden noundef ptr @_ZNK12CompileQueue4nameEv(ptr noundef nonnull align 8 dereferenceable(48) %0) #1 comdat align 2 {
  %2 = alloca ptr, align 8
  store ptr %0, ptr %2, align 8
  %3 = load ptr, ptr %2, align 8
  %4 = getelementptr inbounds %class.CompileQueue, ptr %3, i32 0, i32 0
  %5 = load ptr, ptr %4, align 8
  ret ptr %5
}

; Function Attrs: mustprogress nounwind uwtable
define hidden void @_ZN12CompileQueue5printEP12outputStream(ptr noundef nonnull align 8 dereferenceable(48) %0, ptr noundef %1) #1 align 2 {
  %3 = alloca ptr, align 8
  %4 = alloca ptr, align 8
  %5 = alloca ptr, align 8
  store ptr %0, ptr %3, align 8
  store ptr %1, ptr %4, align 8
  %6 = load ptr, ptr %3, align 8
  %7 = load ptr, ptr %4, align 8
  %8 = call noundef ptr @_ZNK12CompileQueue4nameEv(ptr noundef nonnull align 8 dereferenceable(48) %6)
  call void (ptr, ptr, ...) @_ZN12outputStream8print_crEPKcz(ptr noundef nonnull align 8 dereferenceable(56) %7, ptr noundef @.str.14, ptr noundef %8)
  %9 = getelementptr inbounds %class.CompileQueue, ptr %6, i32 0, i32 1
  %10 = load ptr, ptr %9, align 8
  store ptr %10, ptr %5, align 8
  %11 = load ptr, ptr %5, align 8
  %12 = icmp eq ptr %11, null
  br i1 %12, label %13, label %15

13:                                               ; preds = %2
  %14 = load ptr, ptr %4, align 8
  call void (ptr, ptr, ...) @_ZN12outputStream8print_crEPKcz(ptr noundef nonnull align 8 dereferenceable(56) %14, ptr noundef @.str.15)
  br label %25

15:                                               ; preds = %2
  br label %16

16:                                               ; preds = %19, %15
  %17 = load ptr, ptr %5, align 8
  %18 = icmp ne ptr %17, null
  br i1 %18, label %19, label %24

19:                                               ; preds = %16
  %20 = load ptr, ptr %5, align 8
  %21 = load ptr, ptr %4, align 8
  call void @_ZN11CompileTask5printEP12outputStreamPKcbb(ptr noundef nonnull align 8 dereferenceable(176) %20, ptr noundef %21, ptr noundef null, i1 noundef zeroext true, i1 noundef zeroext true)
  %22 = load ptr, ptr %5, align 8
  %23 = call noundef ptr @_ZNK11CompileTask4nextEv(ptr noundef nonnull align 8 dereferenceable(176) %22)
  store ptr %23, ptr %5, align 8
  br label %16, !llvm.loop !11

24:                                               ; preds = %16
  br label %25

25:                                               ; preds = %24, %13
  %26 = load ptr, ptr %4, align 8
  call void @_ZN12outputStream2crEv(ptr noundef nonnull align 8 dereferenceable(56) %26)
  ret void
}

; Function Attrs: mustprogress nounwind uwtable
define hidden void @_ZN13CompileBroker20print_compile_queuesEP12outputStream(ptr noundef %0) #1 align 2 {
  %2 = alloca ptr, align 8
  %3 = alloca [2000 x i8], align 16
  %4 = alloca i32, align 4
  store ptr %0, ptr %2, align 8
  %5 = load ptr, ptr %2, align 8
  call void (ptr, ptr, ...) @_ZN12outputStream8print_crEPKcz(ptr noundef nonnull align 8 dereferenceable(56) %5, ptr noundef @.str.13)
  store i32 2000, ptr %4, align 4
  %6 = load ptr, ptr %2, align 8
  %7 = getelementptr inbounds [2000 x i8], ptr %3, i64 0, i64 0
  %8 = load i32, ptr %4, align 4
  %9 = call noundef i32 @_ZN7Threads23print_threads_compilingEP12outputStreamPcib(ptr noundef %6, ptr noundef %7, i32 noundef %8, i1 noundef zeroext true)
  %10 = load ptr, ptr %2, align 8
  call void @_ZN12outputStream2crEv(ptr noundef nonnull align 8 dereferenceable(56) %10)
  %11 = load ptr, ptr @_ZN13CompileBroker17_c1_compile_queueE, align 8
  %12 = icmp ne ptr %11, null
  br i1 %12, label %13, label %16

13:                                               ; preds = %1
  %14 = load ptr, ptr @_ZN13CompileBroker17_c1_compile_queueE, align 8
  %15 = load ptr, ptr %2, align 8
  call void @_ZN12CompileQueue5printEP12outputStream(ptr noundef nonnull align 8 dereferenceable(48) %14, ptr noundef %15)
  br label %16

16:                                               ; preds = %13, %1
  %17 = load ptr, ptr @_ZN13CompileBroker17_c2_compile_queueE, align 8
  %18 = icmp ne ptr %17, null
  br i1 %18, label %19, label %22

19:                                               ; preds = %16
  %20 = load ptr, ptr @_ZN13CompileBroker17_c2_compile_queueE, align 8
  %21 = load ptr, ptr %2, align 8
  call void @_ZN12CompileQueue5printEP12outputStream(ptr noundef nonnull align 8 dereferenceable(48) %20, ptr noundef %21)
  br label %22

22:                                               ; preds = %19, %16
  ret void
}