; Function Attrs: mustprogress nounwind uwtable
define hidden void @_ZN13CompileBroker20print_compile_queuesEP12outputStream(ptr noundef nonnull %0) local_unnamed_addr #0 align 2 {
  %2 = alloca [2000 x i8], align 16
  tail call void (ptr, ptr, ...) @_ZN12outputStream8print_crEPKcz(ptr noundef nonnull align 8 dereferenceable(56) %0, ptr noundef nonnull @.str.13) #20
  %3 = call noundef i32 @_ZN7Threads23print_threads_compilingEP12outputStreamPcib(ptr noundef nonnull %0, ptr noundef nonnull %2, i32 noundef 2000, i1 noundef zeroext true) #20
  call void @_ZN12outputStream2crEv(ptr noundef nonnull align 8 dereferenceable(56) %0) #20
  %4 = load ptr, ptr @_ZN13CompileBroker17_c1_compile_queueE, align 8
  %.not = icmp eq ptr %4, null
  br i1 %.not, label %13, label %5

5:                                                ; preds = %1
  %6 = load ptr, ptr %4, align 8
  call void (ptr, ptr, ...) @_ZN12outputStream8print_crEPKcz(ptr noundef nonnull align 8 dereferenceable(56) %0, ptr noundef nonnull @.str.14, ptr noundef %6) #20
  %7 = getelementptr inbounds i8, ptr %4, i64 8
  %8 = load ptr, ptr %7, align 8
  %9 = icmp eq ptr %8, null
  br i1 %9, label %10, label %.preheader.i

10:                                               ; preds = %5
  call void (ptr, ptr, ...) @_ZN12outputStream8print_crEPKcz(ptr noundef nonnull align 8 dereferenceable(56) %0, ptr noundef nonnull @.str.15) #20
  br label %_ZN12CompileQueue5printEP12outputStream.exit

.preheader.i:                                     ; preds = %5, %.preheader.i
  %.010.i = phi ptr [ %12, %.preheader.i ], [ %8, %5 ]
  call void @_ZN11CompileTask5printEP12outputStreamPKcbb(ptr noundef nonnull align 8 dereferenceable(176) %.010.i, ptr noundef nonnull %0, ptr noundef null, i1 noundef zeroext true, i1 noundef zeroext true) #20
  %11 = getelementptr inbounds i8, ptr %.010.i, i64 88
  %12 = load ptr, ptr %11, align 8
  %.not.i = icmp eq ptr %12, null
  br i1 %.not.i, label %_ZN12CompileQueue5printEP12outputStream.exit, label %.preheader.i, !llvm.loop !9

_ZN12CompileQueue5printEP12outputStream.exit:     ; preds = %.preheader.i, %10
  call void @_ZN12outputStream2crEv(ptr noundef nonnull align 8 dereferenceable(56) %0) #20
  br label %13

13:                                               ; preds = %_ZN12CompileQueue5printEP12outputStream.exit, %1
  %14 = load ptr, ptr @_ZN13CompileBroker17_c2_compile_queueE, align 8
  %.not6 = icmp eq ptr %14, null
  br i1 %.not6, label %23, label %15

15:                                               ; preds = %13
  %16 = load ptr, ptr %14, align 8
  call void (ptr, ptr, ...) @_ZN12outputStream8print_crEPKcz(ptr noundef nonnull align 8 dereferenceable(56) %0, ptr noundef nonnull @.str.14, ptr noundef %16) #20
  %17 = getelementptr inbounds i8, ptr %14, i64 8
  %18 = load ptr, ptr %17, align 8
  %19 = icmp eq ptr %18, null
  br i1 %19, label %20, label %.preheader.i7

20:                                               ; preds = %15
  call void (ptr, ptr, ...) @_ZN12outputStream8print_crEPKcz(ptr noundef nonnull align 8 dereferenceable(56) %0, ptr noundef nonnull @.str.15) #20
  br label %_ZN12CompileQueue5printEP12outputStream.exit10

.preheader.i7:                                    ; preds = %15, %.preheader.i7
  %.010.i8 = phi ptr [ %22, %.preheader.i7 ], [ %18, %15 ]
  call void @_ZN11CompileTask5printEP12outputStreamPKcbb(ptr noundef nonnull align 8 dereferenceable(176) %.010.i8, ptr noundef nonnull %0, ptr noundef null, i1 noundef zeroext true, i1 noundef zeroext true) #20
  %21 = getelementptr inbounds i8, ptr %.010.i8, i64 88
  %22 = load ptr, ptr %21, align 8
  %.not.i9 = icmp eq ptr %22, null
  br i1 %.not.i9, label %_ZN12CompileQueue5printEP12outputStream.exit10, label %.preheader.i7, !llvm.loop !9

_ZN12CompileQueue5printEP12outputStream.exit10:   ; preds = %.preheader.i7, %20
  call void @_ZN12outputStream2crEv(ptr noundef nonnull align 8 dereferenceable(56) %0) #20
  br label %23

23:                                               ; preds = %_ZN12CompileQueue5printEP12outputStream.exit10, %13
  ret void
}